target datalayout = "e-m:e-p270:32:32-p271:32:32-p272:64:64-i64:64-i128:128-f80:128-n8:16:32:64-S128"
target triple = "x86_64-unknown-linux-gnu"

%struct.UStringSearch = type { ptr, %struct.UPattern, ptr, ptr, ptr, ptr, ptr, i8, i32, i32, i32, i8 }
%struct.UPattern = type { ptr, i32, i32, ptr, [256 x i32], i32, ptr, [256 x i64], i8, i8 }
%struct.USearch = type { ptr, i32, i8, i8, i16, ptr, ptr, i32, i32, i8, i8 }
%"struct.icu_75::(anonymous namespace)::CEIBuffer" = type { [96 x %struct.CEI], ptr, i32, i32, i32, ptr, ptr }
%struct.CEI = type { i64, i32, i32 }

; Function Attrs: mustprogress nounwind uwtable
define internal noundef signext i8 @_ZL9U_FAILURE10UErrorCode(i32 noundef %code) #1 {
entry:
  %code.addr = alloca i32, align 4
  store i32 %code, ptr %code.addr, align 4
  %0 = load i32, ptr %code.addr, align 4
  %cmp = icmp sgt i32 %0, 0
  %conv = zext i1 %cmp to i8
  ret i8 %conv
}

; Function Attrs: mustprogress uwtable
define internal noundef signext i8 @_ZN12_GLOBAL__N_121initTextProcessedIterEP13UStringSearchP10UErrorCode(ptr noundef %strsrch, ptr noundef %status) #0 personality ptr @__gxx_personality_v0 {
entry:
  %retval = alloca i8, align 1
  %strsrch.addr = alloca ptr, align 8
  %status.addr = alloca ptr, align 8
  %saved-rvalue = alloca ptr, align 8
  %cleanup.cond = alloca i1, align 1
  %exn.slot = alloca ptr, align 8
  %ehselector.slot = alloca i32, align 4
  store ptr %strsrch, ptr %strsrch.addr, align 8
  store ptr %status, ptr %status.addr, align 8
  %0 = load ptr, ptr %status.addr, align 8
  %1 = load i32, ptr %0, align 4
  %call = call noundef signext i8 @_ZL9U_FAILURE10UErrorCode(i32 noundef %1)
  %tobool = icmp ne i8 %call, 0
  br i1 %tobool, label %if.then, label %if.end

if.then:                                          ; preds = %entry
  store i8 0, ptr %retval, align 1
  br label %return

if.end:                                           ; preds = %entry
  %2 = load ptr, ptr %strsrch.addr, align 8
  %textProcessedIter = getelementptr inbounds %struct.UStringSearch, ptr %2, i32 0, i32 5
  %3 = load ptr, ptr %textProcessedIter, align 8
  %cmp = icmp eq ptr %3, null
  br i1 %cmp, label %if.then1, label %if.else

if.then1:                                         ; preds = %if.end
  %call2 = call noundef ptr @_ZN6icu_757UMemorynwEm(i64 noundef 296) #8
  %new.isnull = icmp eq ptr %call2, null
  store i1 false, ptr %cleanup.cond, align 1
  br i1 %new.isnull, label %new.cont, label %new.notnull

new.notnull:                                      ; preds = %if.then1
  store ptr %call2, ptr %saved-rvalue, align 8
  store i1 true, ptr %cleanup.cond, align 1
  %4 = load ptr, ptr %strsrch.addr, align 8
  %textIter = getelementptr inbounds %struct.UStringSearch, ptr %4, i32 0, i32 4
  %5 = load ptr, ptr %textIter, align 8
  invoke void @_ZN6icu_7513UCollationPCEC1EP18UCollationElements(ptr noundef nonnull align 8 dereferenceable(292) %call2, ptr noundef %5)
          to label %invoke.cont unwind label %lpad

invoke.cont:                                      ; preds = %new.notnull
  br label %new.cont

new.cont:                                         ; preds = %invoke.cont, %if.then1
  %6 = phi ptr [ %call2, %invoke.cont ], [ null, %if.then1 ]
  %7 = load ptr, ptr %strsrch.addr, align 8
  %textProcessedIter3 = getelementptr inbounds %struct.UStringSearch, ptr %7, i32 0, i32 5
  store ptr %6, ptr %textProcessedIter3, align 8
  %8 = load ptr, ptr %strsrch.addr, align 8
  %textProcessedIter4 = getelementptr inbounds %struct.UStringSearch, ptr %8, i32 0, i32 5
  %9 = load ptr, ptr %textProcessedIter4, align 8
  %cmp5 = icmp eq ptr %9, null
  br i1 %cmp5, label %if.then6, label %if.end7

if.then6:                                         ; preds = %new.cont
  %10 = load ptr, ptr %status.addr, align 8
  store i32 7, ptr %10, align 4
  store i8 0, ptr %retval, align 1
  br label %return

lpad:                                             ; preds = %new.notnull
  %11 = landingpad { ptr, i32 }
          cleanup
  %12 = extractvalue { ptr, i32 } %11, 0
  store ptr %12, ptr %exn.slot, align 8
  %13 = extractvalue { ptr, i32 } %11, 1
  store i32 %13, ptr %ehselector.slot, align 4
  %cleanup.is_active = load i1, ptr %cleanup.cond, align 1
  br i1 %cleanup.is_active, label %cleanup.action, label %cleanup.done

cleanup.action:                                   ; preds = %lpad
  %14 = load ptr, ptr %saved-rvalue, align 8
  call void @_ZN6icu_757UMemorydlEPv(ptr noundef %14) #8
  br label %cleanup.done

cleanup.done:                                     ; preds = %cleanup.action, %lpad
  br label %eh.resume

if.end7:                                          ; preds = %new.cont
  br label %if.end10

if.else:                                          ; preds = %if.end
  %15 = load ptr, ptr %strsrch.addr, align 8
  %textProcessedIter8 = getelementptr inbounds %struct.UStringSearch, ptr %15, i32 0, i32 5
  %16 = load ptr, ptr %textProcessedIter8, align 8
  %17 = load ptr, ptr %strsrch.addr, align 8
  %textIter9 = getelementptr inbounds %struct.UStringSearch, ptr %17, i32 0, i32 4
  %18 = load ptr, ptr %textIter9, align 8
  call void @_ZN6icu_7513UCollationPCE4initEP18UCollationElements(ptr noundef nonnull align 8 dereferenceable(292) %16, ptr noundef %18)
  br label %if.end10

if.end10:                                         ; preds = %if.else, %if.end7
  store i8 1, ptr %retval, align 1
  br label %return

return:                                           ; preds = %if.end10, %if.then6, %if.then
  %19 = load i8, ptr %retval, align 1
  ret i8 %19

eh.resume:                                        ; preds = %cleanup.done
  %exn = load ptr, ptr %exn.slot, align 8
  %sel = load i32, ptr %ehselector.slot, align 4
  %lpad.val = insertvalue { ptr, i32 } poison, ptr %exn, 0
  %lpad.val11 = insertvalue { ptr, i32 } %lpad.val, i32 %sel, 1
  resume { ptr, i32 } %lpad.val11
}

; Function Attrs: mustprogress uwtable
define internal void @_ZN6icu_7512_GLOBAL__N_19CEIBufferC2EP13UStringSearchP10UErrorCode(ptr noundef nonnull align 8 dereferenceable(1576) %this, ptr noundef %ss, ptr noundef %status) unnamed_addr #0 align 2 {
entry:
  %this.addr = alloca ptr, align 8
  %ss.addr = alloca ptr, align 8
  %status.addr = alloca ptr, align 8
  %patText = alloca ptr, align 8
  %patTextLimit = alloca ptr, align 8
  %c = alloca i16, align 2
  store ptr %this, ptr %this.addr, align 8
  store ptr %ss, ptr %ss.addr, align 8
  store ptr %status, ptr %status.addr, align 8
  %this1 = load ptr, ptr %this.addr, align 8
  %defBuf2 = getelementptr inbounds %"struct.icu_75::(anonymous namespace)::CEIBuffer", ptr %this1, i32 0, i32 0
  %arraydecay = getelementptr inbounds [96 x %struct.CEI], ptr %defBuf2, i64 0, i64 0
  %buf = getelementptr inbounds %"struct.icu_75::(anonymous namespace)::CEIBuffer", ptr %this1, i32 0, i32 1
  store ptr %arraydecay, ptr %buf, align 8
  %0 = load ptr, ptr %ss.addr, align 8
  %strSearch = getelementptr inbounds %"struct.icu_75::(anonymous namespace)::CEIBuffer", ptr %this1, i32 0, i32 6
  store ptr %0, ptr %strSearch, align 8
  %1 = load ptr, ptr %ss.addr, align 8
  %pattern = getelementptr inbounds %struct.UStringSearch, ptr %1, i32 0, i32 1
  %pcesLength = getelementptr inbounds %struct.UPattern, ptr %pattern, i32 0, i32 5
  %2 = load i32, ptr %pcesLength, align 8
  %add = add nsw i32 %2, 32
  %bufSize = getelementptr inbounds %"struct.icu_75::(anonymous namespace)::CEIBuffer", ptr %this1, i32 0, i32 2
  store i32 %add, ptr %bufSize, align 8
  %3 = load ptr, ptr %ss.addr, align 8
  %search = getelementptr inbounds %struct.UStringSearch, ptr %3, i32 0, i32 0
  %4 = load ptr, ptr %search, align 8
  %elementComparisonType = getelementptr inbounds %struct.USearch, ptr %4, i32 0, i32 4
  %5 = load i16, ptr %elementComparisonType, align 2
  %conv = sext i16 %5 to i32
  %cmp = icmp ne i32 %conv, 0
  br i1 %cmp, label %if.then, label %if.end28

if.then:                                          ; preds = %entry
  %6 = load ptr, ptr %ss.addr, align 8
  %pattern3 = getelementptr inbounds %struct.UStringSearch, ptr %6, i32 0, i32 1
  %text = getelementptr inbounds %struct.UPattern, ptr %pattern3, i32 0, i32 0
  %7 = load ptr, ptr %text, align 8
  store ptr %7, ptr %patText, align 8
  %8 = load ptr, ptr %patText, align 8
  %tobool = icmp ne ptr %8, null
  br i1 %tobool, label %if.then4, label %if.end27

if.then4:                                         ; preds = %if.then
  %9 = load ptr, ptr %patText, align 8
  %10 = load ptr, ptr %ss.addr, align 8
  %pattern5 = getelementptr inbounds %struct.UStringSearch, ptr %10, i32 0, i32 1
  %textLength = getelementptr inbounds %struct.UPattern, ptr %pattern5, i32 0, i32 1
  %11 = load i32, ptr %textLength, align 8
  %idx.ext = sext i32 %11 to i64
  %add.ptr = getelementptr inbounds i16, ptr %9, i64 %idx.ext
  store ptr %add.ptr, ptr %patTextLimit, align 8
  br label %while.cond

while.cond:                                       ; preds = %if.end, %if.then4
  %12 = load ptr, ptr %patText, align 8
  %13 = load ptr, ptr %patTextLimit, align 8
  %cmp6 = icmp ult ptr %12, %13
  br i1 %cmp6, label %while.body, label %while.end

while.body:                                       ; preds = %while.cond
  %14 = load ptr, ptr %patText, align 8
  %incdec.ptr = getelementptr inbounds i16, ptr %14, i32 1
  store ptr %incdec.ptr, ptr %patText, align 8
  %15 = load i16, ptr %14, align 2
  store i16 %15, ptr %c, align 2
  %16 = load i16, ptr %c, align 2
  %conv7 = zext i16 %16 to i32
  %cmp8 = icmp sge i32 %conv7, 4352
  br i1 %cmp8, label %land.lhs.true, label %lor.lhs.false

land.lhs.true:                                    ; preds = %while.body
  %17 = load i16, ptr %c, align 2
  %conv9 = zext i16 %17 to i32
  %cmp10 = icmp sle i32 %conv9, 4446
  br i1 %cmp10, label %if.then22, label %lor.lhs.false

lor.lhs.false:                                    ; preds = %land.lhs.true, %while.body
  %18 = load i16, ptr %c, align 2
  %conv11 = zext i16 %18 to i32
  %cmp12 = icmp sge i32 %conv11, 12593
  br i1 %cmp12, label %land.lhs.true13, label %lor.lhs.false16

land.lhs.true13:                                  ; preds = %lor.lhs.false
  %19 = load i16, ptr %c, align 2
  %conv14 = zext i16 %19 to i32
  %cmp15 = icmp sle i32 %conv14, 12622
  br i1 %cmp15, label %if.then22, label %lor.lhs.false16

lor.lhs.false16:                                  ; preds = %land.lhs.true13, %lor.lhs.false
  %20 = load i16, ptr %c, align 2
  %conv17 = zext i16 %20 to i32
  %cmp18 = icmp sge i32 %conv17, 12645
  br i1 %cmp18, label %land.lhs.true19, label %if.else

land.lhs.true19:                                  ; preds = %lor.lhs.false16
  %21 = load i16, ptr %c, align 2
  %conv20 = zext i16 %21 to i32
  %cmp21 = icmp sle i32 %conv20, 12678
  br i1 %cmp21, label %if.then22, label %if.else

if.then22:                                        ; preds = %land.lhs.true19, %land.lhs.true13, %land.lhs.true
  %bufSize23 = getelementptr inbounds %"struct.icu_75::(anonymous namespace)::CEIBuffer", ptr %this1, i32 0, i32 2
  %22 = load i32, ptr %bufSize23, align 8
  %add24 = add nsw i32 %22, 8
  store i32 %add24, ptr %bufSize23, align 8
  br label %if.end

if.else:                                          ; preds = %land.lhs.true19, %lor.lhs.false16
  %bufSize25 = getelementptr inbounds %"struct.icu_75::(anonymous namespace)::CEIBuffer", ptr %this1, i32 0, i32 2
  %23 = load i32, ptr %bufSize25, align 8
  %add26 = add nsw i32 %23, 3
  store i32 %add26, ptr %bufSize25, align 8
  br label %if.end

if.end:                                           ; preds = %if.else, %if.then22
  br label %while.cond, !llvm.loop !11

while.end:                                        ; preds = %while.cond
  br label %if.end27

if.end27:                                         ; preds = %while.end, %if.then
  br label %if.end28

if.end28:                                         ; preds = %if.end27, %entry
  %24 = load ptr, ptr %ss.addr, align 8
  %textIter = getelementptr inbounds %struct.UStringSearch, ptr %24, i32 0, i32 4
  %25 = load ptr, ptr %textIter, align 8
  %ceIter = getelementptr inbounds %"struct.icu_75::(anonymous namespace)::CEIBuffer", ptr %this1, i32 0, i32 5
  store ptr %25, ptr %ceIter, align 8
  %firstIx = getelementptr inbounds %"struct.icu_75::(anonymous namespace)::CEIBuffer", ptr %this1, i32 0, i32 3
  store i32 0, ptr %firstIx, align 4
  %limitIx = getelementptr inbounds %"struct.icu_75::(anonymous namespace)::CEIBuffer", ptr %this1, i32 0, i32 4
  store i32 0, ptr %limitIx, align 8
  %26 = load ptr, ptr %ss.addr, align 8
  %27 = load ptr, ptr %status.addr, align 8
  %call = call noundef signext i8 @_ZN12_GLOBAL__N_121initTextProcessedIterEP13UStringSearchP10UErrorCode(ptr noundef %26, ptr noundef %27)
  %tobool29 = icmp ne i8 %call, 0
  br i1 %tobool29, label %if.end31, label %if.then30

if.then30:                                        ; preds = %if.end28
  br label %if.end43

if.end31:                                         ; preds = %if.end28
  %bufSize32 = getelementptr inbounds %"struct.icu_75::(anonymous namespace)::CEIBuffer", ptr %this1, i32 0, i32 2
  %28 = load i32, ptr %bufSize32, align 8
  %cmp33 = icmp sgt i32 %28, 96
  br i1 %cmp33, label %if.then34, label %if.end43

if.then34:                                        ; preds = %if.end31
  %bufSize35 = getelementptr inbounds %"struct.icu_75::(anonymous namespace)::CEIBuffer", ptr %this1, i32 0, i32 2
  %29 = load i32, ptr %bufSize35, align 8
  %conv36 = sext i32 %29 to i64
  %mul = mul i64 %conv36, 16
  %call37 = call noalias ptr @uprv_malloc_75(i64 noundef %mul) #7
  %buf38 = getelementptr inbounds %"struct.icu_75::(anonymous namespace)::CEIBuffer", ptr %this1, i32 0, i32 1
  store ptr %call37, ptr %buf38, align 8
  %buf39 = getelementptr inbounds %"struct.icu_75::(anonymous namespace)::CEIBuffer", ptr %this1, i32 0, i32 1
  %30 = load ptr, ptr %buf39, align 8
  %cmp40 = icmp eq ptr %30, null
  br i1 %cmp40, label %if.then41, label %if.end42

if.then41:                                        ; preds = %if.then34
  %31 = load ptr, ptr %status.addr, align 8
  store i32 7, ptr %31, align 4
  br label %if.end42

if.end42:                                         ; preds = %if.then41, %if.then34
  br label %if.end43

if.end43:                                         ; preds = %if.end42, %if.end31, %if.then30
  ret void
}