; Function Attrs: mustprogress uwtable
define internal fastcc void @_ZN6icu_7512_GLOBAL__N_19CEIBufferC2EP13UStringSearchP10UErrorCode(ptr noundef nonnull align 8 dereferenceable(1576) %this, ptr noundef %ss, ptr nocapture noundef %status) unnamed_addr #0 align 2 personality ptr @__gxx_personality_v0 {
entry:
  %buf = getelementptr inbounds i8, ptr %this, i64 1536
  store ptr %this, ptr %buf, align 8
  %strSearch = getelementptr inbounds i8, ptr %this, i64 1568
  store ptr %ss, ptr %strSearch, align 8
  %pcesLength = getelementptr inbounds i8, ptr %ss, i64 1056
  %0 = load i32, ptr %pcesLength, align 8
  %add = add nsw i32 %0, 32
  %bufSize = getelementptr inbounds i8, ptr %this, i64 1544
  store i32 %add, ptr %bufSize, align 8
  %1 = load ptr, ptr %ss, align 8
  %elementComparisonType = getelementptr inbounds i8, ptr %1, i64 14
  %2 = load i16, ptr %elementComparisonType, align 2
  %cmp.not = icmp eq i16 %2, 0
  br i1 %cmp.not, label %if.end28, label %if.then

if.then:                                          ; preds = %entry
  %pattern = getelementptr inbounds i8, ptr %ss, i64 8
  %3 = load ptr, ptr %pattern, align 8
  %tobool.not = icmp eq ptr %3, null
  br i1 %tobool.not, label %if.end28, label %if.then4

if.then4:                                         ; preds = %if.then
  %textLength = getelementptr inbounds i8, ptr %ss, i64 16
  %4 = load i32, ptr %textLength, align 8
  %idx.ext = sext i32 %4 to i64
  %add.ptr = getelementptr inbounds i16, ptr %3, i64 %idx.ext
  %cmp624 = icmp sgt i32 %4, 0
  br i1 %cmp624, label %while.body, label %if.end28

while.body:                                       ; preds = %if.then4, %while.body
  %patText.026 = phi ptr [ %incdec.ptr, %while.body ], [ %3, %if.then4 ]
  %storemerge2325 = phi i32 [ %storemerge, %while.body ], [ %add, %if.then4 ]
  %incdec.ptr = getelementptr inbounds i8, ptr %patText.026, i64 2
  %5 = load i16, ptr %patText.026, align 2
  %6 = add i16 %5, -4352
  %or.cond = icmp ult i16 %6, 95
  %7 = add i16 %5, -12593
  %or.cond1 = icmp ult i16 %7, 30
  %or.cond19 = or i1 %or.cond, %or.cond1
  %8 = add i16 %5, -12645
  %or.cond2 = icmp ult i16 %8, 34
  %or.cond20 = or i1 %or.cond2, %or.cond19
  %storemerge.v = select i1 %or.cond20, i32 8, i32 3
  %storemerge = add nsw i32 %storemerge.v, %storemerge2325
  store i32 %storemerge, ptr %bufSize, align 8
  %cmp6 = icmp ult ptr %incdec.ptr, %add.ptr
  br i1 %cmp6, label %while.body, label %if.end28, !llvm.loop !13

if.end28:                                         ; preds = %while.body, %if.then4, %if.then, %entry
  %textIter = getelementptr inbounds i8, ptr %ss, i64 3144
  %9 = load ptr, ptr %textIter, align 8
  %ceIter = getelementptr inbounds i8, ptr %this, i64 1560
  store ptr %9, ptr %ceIter, align 8
  %firstIx = getelementptr inbounds i8, ptr %this, i64 1548
  store i32 0, ptr %firstIx, align 4
  %limitIx = getelementptr inbounds i8, ptr %this, i64 1552
  store i32 0, ptr %limitIx, align 8
  %10 = load i32, ptr %status, align 4
  %cmp.i.i = icmp slt i32 %10, 1
  br i1 %cmp.i.i, label %if.end.i, label %if.end43

if.end.i:                                         ; preds = %if.end28
  %textProcessedIter.i = getelementptr inbounds i8, ptr %ss, i64 3152
  %11 = load ptr, ptr %textProcessedIter.i, align 8
  %cmp.i = icmp eq ptr %11, null
  br i1 %cmp.i, label %if.then1.i, label %if.else.i

if.then1.i:                                       ; preds = %if.end.i
  %call2.i = tail call noundef ptr @_ZN6icu_757UMemorynwEm(i64 noundef 296) #17
  %new.isnull.i = icmp eq ptr %call2.i, null
  br i1 %new.isnull.i, label %if.then6.i, label %new.notnull.i

new.notnull.i:                                    ; preds = %if.then1.i
  %12 = load ptr, ptr %textIter, align 8
  invoke void @_ZN6icu_7513UCollationPCEC1EP18UCollationElements(ptr noundef nonnull align 8 dereferenceable(292) %call2.i, ptr noundef %12)
          to label %new.cont.i unwind label %lpad.i

new.cont.i:                                       ; preds = %new.notnull.i
  store ptr %call2.i, ptr %textProcessedIter.i, align 8
  br label %if.end31

if.then6.i:                                       ; preds = %if.then1.i
  store ptr null, ptr %textProcessedIter.i, align 8
  br label %if.end43.sink.split

lpad.i:                                           ; preds = %new.notnull.i
  %13 = landingpad { ptr, i32 }
          cleanup
  tail call void @_ZN6icu_757UMemorydlEPv(ptr noundef nonnull %call2.i) #17
  resume { ptr, i32 } %13

if.else.i:                                        ; preds = %if.end.i
  %14 = load ptr, ptr %textIter, align 8
  tail call void @_ZN6icu_7513UCollationPCE4initEP18UCollationElements(ptr noundef nonnull align 8 dereferenceable(292) %11, ptr noundef %14)
  br label %if.end31

if.end31:                                         ; preds = %if.else.i, %new.cont.i
  %15 = load i32, ptr %bufSize, align 8
  %cmp33 = icmp sgt i32 %15, 96
  br i1 %cmp33, label %if.then34, label %if.end43

if.then34:                                        ; preds = %if.end31
  %conv36 = zext nneg i32 %15 to i64
  %mul = shl nuw nsw i64 %conv36, 4
  %call37 = tail call noalias ptr @uprv_malloc_75(i64 noundef %mul) #16
  store ptr %call37, ptr %buf, align 8
  %cmp40 = icmp eq ptr %call37, null
  br i1 %cmp40, label %if.end43.sink.split, label %if.end43

if.end43.sink.split:                              ; preds = %if.then34, %if.then6.i
  store i32 7, ptr %status, align 4
  br label %if.end43

if.end43:                                         ; preds = %if.end43.sink.split, %if.end28, %if.then34, %if.end31
  ret void
}